target datalayout = "e-m:e-p270:32:32-p271:32:32-p272:64:64-i64:64-i128:128-f80:128-n8:16:32:64-S128"
target triple = "x86_64-pc-linux-gnu"

%"struct.cv::UMatData" = type { ptr, ptr, i32, i32, ptr, ptr, i64, i32, ptr, ptr, i32, i32, ptr, %"class.std::shared_ptr" }
%"class.std::shared_ptr" = type { %"class.std::__shared_ptr" }
%"class.std::__shared_ptr" = type { ptr, %"class.std::__shared_count" }
%"class.std::__shared_count" = type { ptr }
%"class.cv::UMat" = type { i32, i32, i32, i32, ptr, i32, ptr, i64, %"struct.cv::MatSize", %"struct.cv::MatStep" }
%"struct.cv::MatSize" = type { ptr }
%"struct.cv::MatStep" = type { ptr, [2 x i64] }

; Function Attrs: mustprogress uwtable
define void @_ZN2cv4UMat10deallocateEv(ptr noundef nonnull align 8 dereferenceable(80) %0) #3 align 2 {
  %2 = alloca ptr, align 8
  %3 = alloca ptr, align 8
  store ptr %0, ptr %2, align 8, !tbaa !65
  %4 = load ptr, ptr %2, align 8
  call void @llvm.lifetime.start.p0(i64 8, ptr %3) #16
  %5 = getelementptr inbounds nuw %"class.cv::UMat", ptr %4, i32 0, i32 6
  %6 = load ptr, ptr %5, align 8, !tbaa !80
  store ptr %6, ptr %3, align 8, !tbaa !3
  %7 = getelementptr inbounds nuw %"class.cv::UMat", ptr %4, i32 0, i32 6
  store ptr null, ptr %7, align 8, !tbaa !80
  %8 = load ptr, ptr %3, align 8, !tbaa !3
  %9 = getelementptr inbounds nuw %"struct.cv::UMatData", ptr %8, i32 0, i32 1
  %10 = load ptr, ptr %9, align 8, !tbaa !10
  %11 = load ptr, ptr %3, align 8, !tbaa !3
  %12 = load ptr, ptr %10, align 8, !tbaa !40
  %13 = getelementptr inbounds ptr, ptr %12, i64 4
  %14 = load ptr, ptr %13, align 8
  call void %14(ptr noundef nonnull align 8 dereferenceable(8) %10, ptr noundef %11)
  call void @llvm.lifetime.end.p0(i64 8, ptr %3) #16
  ret void
}

; Function Attrs: mustprogress uwtable
define void @_ZN2cv4UMat7releaseEv(ptr noundef nonnull align 8 dereferenceable(80) %0) #3 align 2 {
  %2 = alloca ptr, align 8
  %3 = alloca i32, align 4
  %4 = alloca i32, align 4
  %5 = alloca i32, align 4
  store ptr %0, ptr %2, align 8, !tbaa !65
  %6 = load ptr, ptr %2, align 8
  %7 = getelementptr inbounds nuw %"class.cv::UMat", ptr %6, i32 0, i32 6
  %8 = load ptr, ptr %7, align 8, !tbaa !80
  %9 = icmp ne ptr %8, null
  br i1 %9, label %10, label %19

10:                                               ; preds = %1
  %11 = getelementptr inbounds nuw %"class.cv::UMat", ptr %6, i32 0, i32 6
  %12 = load ptr, ptr %11, align 8, !tbaa !80
  %13 = getelementptr inbounds nuw %"struct.cv::UMatData", ptr %12, i32 0, i32 2
  store i32 -1, ptr %3, align 4, !tbaa !37
  %14 = load i32, ptr %3, align 4
  %15 = atomicrmw add ptr %13, i32 %14 acq_rel, align 8
  store i32 %15, ptr %4, align 4
  %16 = load i32, ptr %4, align 4, !tbaa !37
  %17 = icmp eq i32 %16, 1
  br i1 %17, label %18, label %19

18:                                               ; preds = %10
  call void @_ZN2cv4UMat10deallocateEv(ptr noundef nonnull align 8 dereferenceable(80) %6)
  br label %19

19:                                               ; preds = %18, %10, %1
  call void @llvm.lifetime.start.p0(i64 4, ptr %5) #16
  store i32 0, ptr %5, align 4, !tbaa !37
  br label %20

20:                                               ; preds = %33, %19
  %21 = load i32, ptr %5, align 4, !tbaa !37
  %22 = getelementptr inbounds nuw %"class.cv::UMat", ptr %6, i32 0, i32 1
  %23 = load i32, ptr %22, align 4, !tbaa !75
  %24 = icmp slt i32 %21, %23
  br i1 %24, label %26, label %25

25:                                               ; preds = %20
  call void @llvm.lifetime.end.p0(i64 4, ptr %5) #16
  br label %36

26:                                               ; preds = %20
  %27 = getelementptr inbounds nuw %"class.cv::UMat", ptr %6, i32 0, i32 8
  %28 = getelementptr inbounds nuw %"struct.cv::MatSize", ptr %27, i32 0, i32 0
  %29 = load ptr, ptr %28, align 8, !tbaa !96
  %30 = load i32, ptr %5, align 4, !tbaa !37
  %31 = sext i32 %30 to i64
  %32 = getelementptr inbounds i32, ptr %29, i64 %31
  store i32 0, ptr %32, align 4, !tbaa !37
  br label %33

33:                                               ; preds = %26
  %34 = load i32, ptr %5, align 4, !tbaa !37
  %35 = add nsw i32 %34, 1
  store i32 %35, ptr %5, align 4, !tbaa !37
  br label %20, !llvm.loop !100

36:                                               ; preds = %25
  %37 = getelementptr inbounds nuw %"class.cv::UMat", ptr %6, i32 0, i32 6
  store ptr null, ptr %37, align 8, !tbaa !80
  ret void
}

; Function Attrs: mustprogress nounwind uwtable
define void @_ZN2cv4UMatD2Ev(ptr noundef nonnull align 8 dereferenceable(80) %0) unnamed_addr #0 align 2 personality ptr @__gxx_personality_v0 {
  %2 = alloca ptr, align 8
  store ptr %0, ptr %2, align 8, !tbaa !65
  %3 = load ptr, ptr %2, align 8
  invoke void @_ZN2cv4UMat7releaseEv(ptr noundef nonnull align 8 dereferenceable(80) %3)
          to label %4 unwind label %18

4:                                                ; preds = %1
  %5 = getelementptr inbounds nuw %"class.cv::UMat", ptr %3, i32 0, i32 9
  %6 = getelementptr inbounds nuw %"struct.cv::MatStep", ptr %5, i32 0, i32 0
  %7 = load ptr, ptr %6, align 8, !tbaa !98
  %8 = getelementptr inbounds nuw %"class.cv::UMat", ptr %3, i32 0, i32 9
  %9 = getelementptr inbounds nuw %"struct.cv::MatStep", ptr %8, i32 0, i32 1
  %10 = getelementptr inbounds [2 x i64], ptr %9, i64 0, i64 0
  %11 = icmp ne ptr %7, %10
  br i1 %11, label %12, label %17

12:                                               ; preds = %4
  %13 = getelementptr inbounds nuw %"class.cv::UMat", ptr %3, i32 0, i32 9
  %14 = getelementptr inbounds nuw %"struct.cv::MatStep", ptr %13, i32 0, i32 0
  %15 = load ptr, ptr %14, align 8, !tbaa !98
  invoke void @_ZN2cv8fastFreeEPv(ptr noundef %15)
          to label %16 unwind label %18

16:                                               ; preds = %12
  br label %17

17:                                               ; preds = %16, %4
  ret void

18:                                               ; preds = %12, %1
  %19 = landingpad { ptr, i32 }
          catch ptr null
  %20 = extractvalue { ptr, i32 } %19, 0
  call void @__clang_call_terminate(ptr %20) #21
  unreachable
}