; Function Attrs: mustprogress nounwind uwtable
define void @_ZN2cv4UMatD2Ev(ptr noundef nonnull align 8 dereferenceable(80) %0) unnamed_addr #1 align 2 personality ptr @__gxx_personality_v0 {
  %2 = getelementptr inbounds nuw i8, ptr %0, i64 32
  %3 = load ptr, ptr %2, align 8, !tbaa !57
  %.not.i = icmp eq ptr %3, null
  br i1 %.not.i, label %.noexc, label %4

4:                                                ; preds = %1
  %5 = getelementptr inbounds nuw i8, ptr %3, i64 16
  %6 = atomicrmw add ptr %5, i32 -1 acq_rel, align 8
  %7 = icmp eq i32 %6, 1
  br i1 %7, label %8, label %.noexc

8:                                                ; preds = %4
  %9 = load ptr, ptr %2, align 8, !tbaa !57
  store ptr null, ptr %2, align 8, !tbaa !57
  %10 = getelementptr inbounds nuw i8, ptr %9, i64 8
  %11 = load ptr, ptr %10, align 8, !tbaa !3
  %12 = load ptr, ptr %11, align 8, !tbaa !21
  %13 = getelementptr inbounds nuw i8, ptr %12, i64 32
  %14 = load ptr, ptr %13, align 8
  invoke void %14(ptr noundef nonnull align 8 dereferenceable(8) %11, ptr noundef nonnull %9)
          to label %.noexc unwind label %30

.noexc:                                           ; preds = %8, %4, %1
  %15 = getelementptr inbounds nuw i8, ptr %0, i64 4
  %16 = load i32, ptr %15, align 4, !tbaa !58
  %17 = icmp sgt i32 %16, 0
  br i1 %17, label %.lr.ph.i, label %.loopexit

.lr.ph.i:                                         ; preds = %.noexc
  %18 = getelementptr inbounds nuw i8, ptr %0, i64 48
  %19 = load ptr, ptr %18, align 8, !tbaa !61
  br label %20

20:                                               ; preds = %20, %.lr.ph.i
  %indvars.iv.i = phi i64 [ 0, %.lr.ph.i ], [ %indvars.iv.next.i, %20 ]
  %21 = getelementptr inbounds nuw i32, ptr %19, i64 %indvars.iv.i
  store i32 0, ptr %21, align 4, !tbaa !28
  %indvars.iv.next.i = add nuw nsw i64 %indvars.iv.i, 1
  %22 = load i32, ptr %15, align 4, !tbaa !58
  %23 = sext i32 %22 to i64
  %24 = icmp slt i64 %indvars.iv.next.i, %23
  br i1 %24, label %20, label %.loopexit, !llvm.loop !62

.loopexit:                                        ; preds = %20, %.noexc
  store ptr null, ptr %2, align 8, !tbaa !57
  %25 = getelementptr inbounds nuw i8, ptr %0, i64 56
  %26 = load ptr, ptr %25, align 8, !tbaa !67
  %27 = getelementptr inbounds nuw i8, ptr %0, i64 64
  %.not = icmp eq ptr %26, %27
  br i1 %.not, label %29, label %28

28:                                               ; preds = %.loopexit
  invoke void @_ZN2cv8fastFreeEPv(ptr noundef %26)
          to label %29 unwind label %30

29:                                               ; preds = %28, %.loopexit
  ret void

30:                                               ; preds = %8, %28
  %31 = landingpad { ptr, i32 }
          catch ptr null
  %32 = extractvalue { ptr, i32 } %31, 0
  tail call void @__clang_call_terminate(ptr %32) #27
  unreachable
}